; Function Attrs: mustprogress nounwind uwtable
define hidden void @_ZN4llvm17DwarfCFIException20endBasicBlockSectionERKNS_17MachineBasicBlockE(ptr nocapture noundef nonnull readonly align 8 dereferenceable(56) %0, ptr nocapture nonnull readnone align 8 %1) unnamed_addr #0 align 2 {
  %3 = getelementptr inbounds nuw i8, ptr %0, i64 27
  %4 = load i8, ptr %3, align 1
  %5 = trunc i8 %4 to i1
  br i1 %5, label %6, label %11

6:                                                ; preds = %2
  %7 = getelementptr inbounds nuw i8, ptr %0, i64 8
  %8 = load ptr, ptr %7, align 8
  %9 = getelementptr inbounds nuw i8, ptr %8, i64 80
  %10 = load ptr, ptr %9, align 8
  tail call void @_ZN4llvm10MCStreamer14emitCFIEndProcEv(ptr noundef nonnull align 8 dereferenceable(288) %10) #9
  br label %11

11:                                               ; preds = %6, %2
  ret void
}